; Function Attrs: inlinehint mustprogress nounwind uwtable
define internal fastcc void @_ZSt8_DestroyIPZN12_GLOBAL__N_112WrapcellPass7executeESt6vectorINSt7__cxx1112basic_stringIcSt11char_traitsIcESaIcEEESaIS8_EEPN5Yosys5RTLIL6DesignEE8AttrRuleSF_EvT_SH_RSaIT0_E(ptr noundef readonly captures(address) %0, ptr noundef readnone captures(address) %1) unnamed_addr #4 personality ptr @__gxx_personality_v0 {
  %.not4.i.i = icmp eq ptr %0, %1
  br i1 %.not4.i.i, label %_ZSt8_DestroyIPZN12_GLOBAL__N_112WrapcellPass7executeESt6vectorINSt7__cxx1112basic_stringIcSt11char_traitsIcESaIcEEESaIS8_EEPN5Yosys5RTLIL6DesignEE8AttrRuleEvT_SH_.exit, label %.lr.ph.i.i

.lr.ph.i.i:                                       ; preds = %2, %_ZSt8_DestroyIZN12_GLOBAL__N_112WrapcellPass7executeESt6vectorINSt7__cxx1112basic_stringIcSt11char_traitsIcESaIcEEESaIS8_EEPN5Yosys5RTLIL6DesignEE8AttrRuleEvPT_.exit.i.i
  %.05.i.i = phi ptr [ %27, %_ZSt8_DestroyIZN12_GLOBAL__N_112WrapcellPass7executeESt6vectorINSt7__cxx1112basic_stringIcSt11char_traitsIcESaIcEEESaIS8_EEPN5Yosys5RTLIL6DesignEE8AttrRuleEvPT_.exit.i.i ], [ %0, %2 ]
  %3 = getelementptr inbounds nuw i8, ptr %.05.i.i, i64 8
  %4 = load ptr, ptr %3, align 8, !tbaa !23
  %5 = getelementptr inbounds nuw i8, ptr %.05.i.i, i64 24
  %6 = icmp eq ptr %4, %5
  br i1 %6, label %_ZNKSt7__cxx1112basic_stringIcSt11char_traitsIcESaIcEE11_M_is_localEv.exit.thread.i.i.i.i.i.i, label %_ZNKSt7__cxx1112basic_stringIcSt11char_traitsIcESaIcEE11_M_is_localEv.exit.i.i.i.i.i.i

_ZNKSt7__cxx1112basic_stringIcSt11char_traitsIcESaIcEE11_M_is_localEv.exit.thread.i.i.i.i.i.i: ; preds = %.lr.ph.i.i
  %7 = getelementptr inbounds nuw i8, ptr %.05.i.i, i64 16
  %8 = load i64, ptr %7, align 8, !tbaa !12
  %9 = icmp ult i64 %8, 16
  tail call void @llvm.assume(i1 %9)
  br label %_ZNSt7__cxx1112basic_stringIcSt11char_traitsIcESaIcEED2Ev.exit.i.i.i.i

_ZNKSt7__cxx1112basic_stringIcSt11char_traitsIcESaIcEE11_M_is_localEv.exit.i.i.i.i.i.i: ; preds = %.lr.ph.i.i
  %10 = load i64, ptr %5, align 8, !tbaa !15
  %11 = add i64 %10, 1
  tail call void @_ZdlPvm(ptr noundef %4, i64 noundef %11) #30
  br label %_ZNSt7__cxx1112basic_stringIcSt11char_traitsIcESaIcEED2Ev.exit.i.i.i.i

_ZNSt7__cxx1112basic_stringIcSt11char_traitsIcESaIcEED2Ev.exit.i.i.i.i: ; preds = %_ZNKSt7__cxx1112basic_stringIcSt11char_traitsIcESaIcEE11_M_is_localEv.exit.i.i.i.i.i.i, %_ZNKSt7__cxx1112basic_stringIcSt11char_traitsIcESaIcEE11_M_is_localEv.exit.thread.i.i.i.i.i.i
  %12 = load i32, ptr %.05.i.i, align 4, !tbaa !30
  %13 = load i8, ptr @_ZN5Yosys5RTLIL8IdString17destruct_guard_okE, align 1, !tbaa !32, !range !34, !noundef !35
  %14 = trunc nuw i8 %13 to i1
  %15 = icmp ne i32 %12, 0
  %or.cond.i.i.i.i.i.i = and i1 %15, %14
  br i1 %or.cond.i.i.i.i.i.i, label %16, label %_ZSt8_DestroyIZN12_GLOBAL__N_112WrapcellPass7executeESt6vectorINSt7__cxx1112basic_stringIcSt11char_traitsIcESaIcEEESaIS8_EEPN5Yosys5RTLIL6DesignEE8AttrRuleEvPT_.exit.i.i

16:                                               ; preds = %_ZNSt7__cxx1112basic_stringIcSt11char_traitsIcESaIcEED2Ev.exit.i.i.i.i
  %17 = sext i32 %12 to i64
  %18 = load ptr, ptr @_ZN5Yosys5RTLIL8IdString24global_refcount_storage_E, align 8, !tbaa !25
  %19 = getelementptr inbounds nuw i32, ptr %18, i64 %17
  %20 = load i32, ptr %19, align 4, !tbaa !28
  %21 = add nsw i32 %20, -1
  store i32 %21, ptr %19, align 4, !tbaa !28
  %22 = icmp sgt i32 %20, 1
  br i1 %22, label %_ZSt8_DestroyIZN12_GLOBAL__N_112WrapcellPass7executeESt6vectorINSt7__cxx1112basic_stringIcSt11char_traitsIcESaIcEEESaIS8_EEPN5Yosys5RTLIL6DesignEE8AttrRuleEvPT_.exit.i.i, label %23

23:                                               ; preds = %16
  invoke void @_ZN5Yosys5RTLIL8IdString14free_referenceEi(i32 noundef %12)
          to label %_ZSt8_DestroyIZN12_GLOBAL__N_112WrapcellPass7executeESt6vectorINSt7__cxx1112basic_stringIcSt11char_traitsIcESaIcEEESaIS8_EEPN5Yosys5RTLIL6DesignEE8AttrRuleEvPT_.exit.i.i unwind label %24

24:                                               ; preds = %23
  %25 = landingpad { ptr, i32 }
          catch ptr null
  %26 = extractvalue { ptr, i32 } %25, 0
  tail call void @__clang_call_terminate(ptr %26) #31
  unreachable

_ZSt8_DestroyIZN12_GLOBAL__N_112WrapcellPass7executeESt6vectorINSt7__cxx1112basic_stringIcSt11char_traitsIcESaIcEEESaIS8_EEPN5Yosys5RTLIL6DesignEE8AttrRuleEvPT_.exit.i.i: ; preds = %23, %16, %_ZNSt7__cxx1112basic_stringIcSt11char_traitsIcESaIcEED2Ev.exit.i.i.i.i
  %27 = getelementptr inbounds nuw i8, ptr %.05.i.i, i64 40
  %.not.i.i = icmp eq ptr %27, %1
  br i1 %.not.i.i, label %_ZSt8_DestroyIPZN12_GLOBAL__N_112WrapcellPass7executeESt6vectorINSt7__cxx1112basic_stringIcSt11char_traitsIcESaIcEEESaIS8_EEPN5Yosys5RTLIL6DesignEE8AttrRuleEvT_SH_.exit, label %.lr.ph.i.i, !llvm.loop !36

_ZSt8_DestroyIPZN12_GLOBAL__N_112WrapcellPass7executeESt6vectorINSt7__cxx1112basic_stringIcSt11char_traitsIcESaIcEEESaIS8_EEPN5Yosys5RTLIL6DesignEE8AttrRuleEvT_SH_.exit: ; preds = %_ZSt8_DestroyIZN12_GLOBAL__N_112WrapcellPass7executeESt6vectorINSt7__cxx1112basic_stringIcSt11char_traitsIcESaIcEEESaIS8_EEPN5Yosys5RTLIL6DesignEE8AttrRuleEvPT_.exit.i.i, %2
  ret void
}